ARM GAS  C:\Users\PETERG~1\AppData\Local\Temp\ccrUoqgc.s 			page 1


   1              		.cpu cortex-m0
   2              		.fpu softvfp
   3              		.eabi_attribute 20, 1
   4              		.eabi_attribute 21, 1
   5              		.eabi_attribute 23, 3
   6              		.eabi_attribute 24, 1
   7              		.eabi_attribute 25, 1
   8              		.eabi_attribute 26, 1
   9              		.eabi_attribute 30, 4
  10              		.eabi_attribute 34, 0
  11              		.eabi_attribute 18, 4
  12              		.code	16
  13              		.file	"UART.c"
  14              		.text
  15              	.Ltext0:
  16              		.cfi_sections	.debug_frame
  17              		.section	.text.UART_Init,"ax",%progbits
  18              		.align	1
  19              		.global	UART_Init
  20              		.code	16
  21              		.thumb_func
  22              		.type	UART_Init, %function
  23              	UART_Init:
  24              	.LFB0:
  25              		.file 1 ".\\Generated_Source\\PSoC4\\UART.c"
   1:.\Generated_Source\PSoC4/UART.c **** /*******************************************************************************
   2:.\Generated_Source\PSoC4/UART.c **** * File Name: UART.c
   3:.\Generated_Source\PSoC4/UART.c **** * Version 1.20
   4:.\Generated_Source\PSoC4/UART.c **** *
   5:.\Generated_Source\PSoC4/UART.c **** * Description:
   6:.\Generated_Source\PSoC4/UART.c **** *  This file provides the source code to the API for the SCB Component.
   7:.\Generated_Source\PSoC4/UART.c **** *
   8:.\Generated_Source\PSoC4/UART.c **** * Note:
   9:.\Generated_Source\PSoC4/UART.c **** *
  10:.\Generated_Source\PSoC4/UART.c **** *******************************************************************************
  11:.\Generated_Source\PSoC4/UART.c **** * Copyright 2013-2014, Cypress Semiconductor Corporation.  All rights reserved.
  12:.\Generated_Source\PSoC4/UART.c **** * You may use this file only in accordance with the license, terms, conditions,
  13:.\Generated_Source\PSoC4/UART.c **** * disclaimers, and limitations in the end user license agreement accompanying
  14:.\Generated_Source\PSoC4/UART.c **** * the software package with which this file was provided.
  15:.\Generated_Source\PSoC4/UART.c **** *******************************************************************************/
  16:.\Generated_Source\PSoC4/UART.c **** 
  17:.\Generated_Source\PSoC4/UART.c **** #include "UART_PVT.h"
  18:.\Generated_Source\PSoC4/UART.c **** 
  19:.\Generated_Source\PSoC4/UART.c **** #if(UART_SCB_MODE_I2C_INC)
  20:.\Generated_Source\PSoC4/UART.c ****     #include "UART_I2C_PVT.h"
  21:.\Generated_Source\PSoC4/UART.c **** #endif /* (UART_SCB_MODE_I2C_INC) */
  22:.\Generated_Source\PSoC4/UART.c **** 
  23:.\Generated_Source\PSoC4/UART.c **** #if(UART_SCB_MODE_EZI2C_INC)
  24:.\Generated_Source\PSoC4/UART.c ****     #include "UART_EZI2C_PVT.h"
  25:.\Generated_Source\PSoC4/UART.c **** #endif /* (UART_SCB_MODE_EZI2C_INC) */
  26:.\Generated_Source\PSoC4/UART.c **** 
  27:.\Generated_Source\PSoC4/UART.c **** #if(UART_SCB_MODE_SPI_INC || UART_SCB_MODE_UART_INC)
  28:.\Generated_Source\PSoC4/UART.c ****     #include "UART_SPI_UART_PVT.h"
  29:.\Generated_Source\PSoC4/UART.c **** #endif /* (UART_SCB_MODE_SPI_INC || UART_SCB_MODE_UART_INC) */
  30:.\Generated_Source\PSoC4/UART.c **** 
  31:.\Generated_Source\PSoC4/UART.c **** 
  32:.\Generated_Source\PSoC4/UART.c **** /***************************************
ARM GAS  C:\Users\PETERG~1\AppData\Local\Temp\ccrUoqgc.s 			page 2


  33:.\Generated_Source\PSoC4/UART.c **** *    Run Time Configuration Vars
  34:.\Generated_Source\PSoC4/UART.c **** ***************************************/
  35:.\Generated_Source\PSoC4/UART.c **** 
  36:.\Generated_Source\PSoC4/UART.c **** /* Stores internal component configuration for unconfigured mode */
  37:.\Generated_Source\PSoC4/UART.c **** #if(UART_SCB_MODE_UNCONFIG_CONST_CFG)
  38:.\Generated_Source\PSoC4/UART.c ****     /* Common config vars */
  39:.\Generated_Source\PSoC4/UART.c ****     uint8 UART_scbMode = UART_SCB_MODE_UNCONFIG;
  40:.\Generated_Source\PSoC4/UART.c ****     uint8 UART_scbEnableWake;
  41:.\Generated_Source\PSoC4/UART.c ****     uint8 UART_scbEnableIntr;
  42:.\Generated_Source\PSoC4/UART.c **** 
  43:.\Generated_Source\PSoC4/UART.c ****     /* I2C config vars */
  44:.\Generated_Source\PSoC4/UART.c ****     uint8 UART_mode;
  45:.\Generated_Source\PSoC4/UART.c ****     uint8 UART_acceptAddr;
  46:.\Generated_Source\PSoC4/UART.c **** 
  47:.\Generated_Source\PSoC4/UART.c ****     /* SPI/UART config vars */
  48:.\Generated_Source\PSoC4/UART.c ****     volatile uint8 * UART_rxBuffer;
  49:.\Generated_Source\PSoC4/UART.c ****     uint8  UART_rxDataBits;
  50:.\Generated_Source\PSoC4/UART.c ****     uint32 UART_rxBufferSize;
  51:.\Generated_Source\PSoC4/UART.c **** 
  52:.\Generated_Source\PSoC4/UART.c ****     volatile uint8 * UART_txBuffer;
  53:.\Generated_Source\PSoC4/UART.c ****     uint8  UART_txDataBits;
  54:.\Generated_Source\PSoC4/UART.c ****     uint32 UART_txBufferSize;
  55:.\Generated_Source\PSoC4/UART.c **** 
  56:.\Generated_Source\PSoC4/UART.c ****     /* EZI2C config vars */
  57:.\Generated_Source\PSoC4/UART.c ****     uint8 UART_numberOfAddr;
  58:.\Generated_Source\PSoC4/UART.c ****     uint8 UART_subAddrSize;
  59:.\Generated_Source\PSoC4/UART.c **** #endif /* (UART_SCB_MODE_UNCONFIG_CONST_CFG) */
  60:.\Generated_Source\PSoC4/UART.c **** 
  61:.\Generated_Source\PSoC4/UART.c **** 
  62:.\Generated_Source\PSoC4/UART.c **** /***************************************
  63:.\Generated_Source\PSoC4/UART.c **** *     Common SCB Vars
  64:.\Generated_Source\PSoC4/UART.c **** ***************************************/
  65:.\Generated_Source\PSoC4/UART.c **** 
  66:.\Generated_Source\PSoC4/UART.c **** uint8 UART_initVar = 0u;
  67:.\Generated_Source\PSoC4/UART.c **** 
  68:.\Generated_Source\PSoC4/UART.c **** #if !defined (CY_REMOVE_UART_CUSTOM_INTR_HANDLER)
  69:.\Generated_Source\PSoC4/UART.c ****     cyisraddress UART_customIntrHandler = NULL;
  70:.\Generated_Source\PSoC4/UART.c **** #endif /* !defined (CY_REMOVE_UART_CUSTOM_INTR_HANDLER) */
  71:.\Generated_Source\PSoC4/UART.c **** 
  72:.\Generated_Source\PSoC4/UART.c **** 
  73:.\Generated_Source\PSoC4/UART.c **** /***************************************
  74:.\Generated_Source\PSoC4/UART.c **** *    Private Function Prototypes
  75:.\Generated_Source\PSoC4/UART.c **** ***************************************/
  76:.\Generated_Source\PSoC4/UART.c **** 
  77:.\Generated_Source\PSoC4/UART.c **** static void UART_ScbEnableIntr(void);
  78:.\Generated_Source\PSoC4/UART.c **** static void UART_ScbModeStop(void);
  79:.\Generated_Source\PSoC4/UART.c **** 
  80:.\Generated_Source\PSoC4/UART.c **** 
  81:.\Generated_Source\PSoC4/UART.c **** /*******************************************************************************
  82:.\Generated_Source\PSoC4/UART.c **** * Function Name: UART_Init
  83:.\Generated_Source\PSoC4/UART.c **** ********************************************************************************
  84:.\Generated_Source\PSoC4/UART.c **** *
  85:.\Generated_Source\PSoC4/UART.c **** * Summary:
  86:.\Generated_Source\PSoC4/UART.c **** *  Initializes the SCB component to operate in one of the selected configurations:
  87:.\Generated_Source\PSoC4/UART.c **** *  I2C, SPI, UART or EZ I2C.
  88:.\Generated_Source\PSoC4/UART.c **** *  When the configuration is set to “Unconfigured SCB”, this function does
  89:.\Generated_Source\PSoC4/UART.c **** *  not do any initialization. Use mode-specific initialization APIs instead:
ARM GAS  C:\Users\PETERG~1\AppData\Local\Temp\ccrUoqgc.s 			page 3


  90:.\Generated_Source\PSoC4/UART.c **** *  SCB_I2CInit, SCB_SpiInit, SCB_UartInit or SCB_EzI2CInit.
  91:.\Generated_Source\PSoC4/UART.c **** *
  92:.\Generated_Source\PSoC4/UART.c **** * Parameters:
  93:.\Generated_Source\PSoC4/UART.c **** *  None
  94:.\Generated_Source\PSoC4/UART.c **** *
  95:.\Generated_Source\PSoC4/UART.c **** * Return:
  96:.\Generated_Source\PSoC4/UART.c **** *  None
  97:.\Generated_Source\PSoC4/UART.c **** *
  98:.\Generated_Source\PSoC4/UART.c **** *******************************************************************************/
  99:.\Generated_Source\PSoC4/UART.c **** void UART_Init(void)
 100:.\Generated_Source\PSoC4/UART.c **** {
  26              		.loc 1 100 0
  27              		.cfi_startproc
  28 0000 08B5     		push	{r3, lr}
  29              	.LCFI0:
  30              		.cfi_def_cfa_offset 8
  31              		.cfi_offset 3, -8
  32              		.cfi_offset 14, -4
 101:.\Generated_Source\PSoC4/UART.c **** #if(UART_SCB_MODE_UNCONFIG_CONST_CFG)
 102:.\Generated_Source\PSoC4/UART.c ****     if(UART_SCB_MODE_UNCONFIG_RUNTM_CFG)
 103:.\Generated_Source\PSoC4/UART.c ****     {
 104:.\Generated_Source\PSoC4/UART.c ****         UART_initVar = 0u; /* Clear init var */
 105:.\Generated_Source\PSoC4/UART.c ****     }
 106:.\Generated_Source\PSoC4/UART.c ****     else
 107:.\Generated_Source\PSoC4/UART.c ****     {
 108:.\Generated_Source\PSoC4/UART.c ****         /* Initialization was done before call */
 109:.\Generated_Source\PSoC4/UART.c ****     }
 110:.\Generated_Source\PSoC4/UART.c **** 
 111:.\Generated_Source\PSoC4/UART.c **** #elif(UART_SCB_MODE_I2C_CONST_CFG)
 112:.\Generated_Source\PSoC4/UART.c ****     UART_I2CInit();
 113:.\Generated_Source\PSoC4/UART.c **** 
 114:.\Generated_Source\PSoC4/UART.c **** #elif(UART_SCB_MODE_SPI_CONST_CFG)
 115:.\Generated_Source\PSoC4/UART.c ****     UART_SpiInit();
 116:.\Generated_Source\PSoC4/UART.c **** 
 117:.\Generated_Source\PSoC4/UART.c **** #elif(UART_SCB_MODE_UART_CONST_CFG)
 118:.\Generated_Source\PSoC4/UART.c ****     UART_UartInit();
  33              		.loc 1 118 0
  34 0002 FFF7FEFF 		bl	UART_UartInit
  35              	.LVL0:
 119:.\Generated_Source\PSoC4/UART.c **** 
 120:.\Generated_Source\PSoC4/UART.c **** #elif(UART_SCB_MODE_EZI2C_CONST_CFG)
 121:.\Generated_Source\PSoC4/UART.c ****     UART_EzI2CInit();
 122:.\Generated_Source\PSoC4/UART.c **** 
 123:.\Generated_Source\PSoC4/UART.c **** #endif /* (UART_SCB_MODE_UNCONFIG_CONST_CFG) */
 124:.\Generated_Source\PSoC4/UART.c **** }
  36              		.loc 1 124 0
  37              		@ sp needed for prologue
  38 0006 08BD     		pop	{r3, pc}
  39              		.cfi_endproc
  40              	.LFE0:
  41              		.size	UART_Init, .-UART_Init
  42              		.section	.text.UART_Enable,"ax",%progbits
  43              		.align	1
  44              		.global	UART_Enable
  45              		.code	16
  46              		.thumb_func
  47              		.type	UART_Enable, %function
ARM GAS  C:\Users\PETERG~1\AppData\Local\Temp\ccrUoqgc.s 			page 4


  48              	UART_Enable:
  49              	.LFB1:
 125:.\Generated_Source\PSoC4/UART.c **** 
 126:.\Generated_Source\PSoC4/UART.c **** 
 127:.\Generated_Source\PSoC4/UART.c **** /*******************************************************************************
 128:.\Generated_Source\PSoC4/UART.c **** * Function Name: UART_Enable
 129:.\Generated_Source\PSoC4/UART.c **** ********************************************************************************
 130:.\Generated_Source\PSoC4/UART.c **** *
 131:.\Generated_Source\PSoC4/UART.c **** * Summary:
 132:.\Generated_Source\PSoC4/UART.c **** *  Enables the SCB component operation.
 133:.\Generated_Source\PSoC4/UART.c **** *  The SCB configuration should be not changed when the component is enabled.
 134:.\Generated_Source\PSoC4/UART.c **** *  Any configuration changes should be made after disabling the component.
 135:.\Generated_Source\PSoC4/UART.c **** *
 136:.\Generated_Source\PSoC4/UART.c **** * Parameters:
 137:.\Generated_Source\PSoC4/UART.c **** *  None
 138:.\Generated_Source\PSoC4/UART.c **** *
 139:.\Generated_Source\PSoC4/UART.c **** * Return:
 140:.\Generated_Source\PSoC4/UART.c **** *  None
 141:.\Generated_Source\PSoC4/UART.c **** *
 142:.\Generated_Source\PSoC4/UART.c **** *******************************************************************************/
 143:.\Generated_Source\PSoC4/UART.c **** void UART_Enable(void)
 144:.\Generated_Source\PSoC4/UART.c **** {
  50              		.loc 1 144 0
  51              		.cfi_startproc
  52 0000 08B5     		push	{r3, lr}
  53              	.LCFI1:
  54              		.cfi_def_cfa_offset 8
  55              		.cfi_offset 3, -8
  56              		.cfi_offset 14, -4
 145:.\Generated_Source\PSoC4/UART.c **** #if(UART_SCB_MODE_UNCONFIG_CONST_CFG)
 146:.\Generated_Source\PSoC4/UART.c ****     /* Enable SCB block, only if it is already configured */
 147:.\Generated_Source\PSoC4/UART.c ****     if(!UART_SCB_MODE_UNCONFIG_RUNTM_CFG)
 148:.\Generated_Source\PSoC4/UART.c ****     {
 149:.\Generated_Source\PSoC4/UART.c ****         UART_CTRL_REG |= UART_CTRL_ENABLED;
 150:.\Generated_Source\PSoC4/UART.c **** 
 151:.\Generated_Source\PSoC4/UART.c ****         UART_ScbEnableIntr();
 152:.\Generated_Source\PSoC4/UART.c ****     }
 153:.\Generated_Source\PSoC4/UART.c **** #else
 154:.\Generated_Source\PSoC4/UART.c ****     UART_CTRL_REG |= UART_CTRL_ENABLED;
  57              		.loc 1 154 0
  58 0002 054B     		ldr	r3, .L3
  59 0004 8022     		mov	r2, #128
  60 0006 1968     		ldr	r1, [r3]
  61 0008 1006     		lsl	r0, r2, #24
  62 000a 0843     		orr	r0, r1
  63 000c 1860     		str	r0, [r3]
  64              	.LBB8:
  65              	.LBB9:
 155:.\Generated_Source\PSoC4/UART.c **** 
 156:.\Generated_Source\PSoC4/UART.c ****     UART_ScbEnableIntr();
 157:.\Generated_Source\PSoC4/UART.c **** #endif /* (UART_SCB_MODE_UNCONFIG_CONST_CFG) */
 158:.\Generated_Source\PSoC4/UART.c **** }
 159:.\Generated_Source\PSoC4/UART.c **** 
 160:.\Generated_Source\PSoC4/UART.c **** 
 161:.\Generated_Source\PSoC4/UART.c **** /*******************************************************************************
 162:.\Generated_Source\PSoC4/UART.c **** * Function Name: UART_Start
 163:.\Generated_Source\PSoC4/UART.c **** ********************************************************************************
ARM GAS  C:\Users\PETERG~1\AppData\Local\Temp\ccrUoqgc.s 			page 5


 164:.\Generated_Source\PSoC4/UART.c **** *
 165:.\Generated_Source\PSoC4/UART.c **** * Summary:
 166:.\Generated_Source\PSoC4/UART.c **** *  Invokes SCB_Init() and SCB_Enable().
 167:.\Generated_Source\PSoC4/UART.c **** *  After this function call, the component is enabled and ready for operation.
 168:.\Generated_Source\PSoC4/UART.c **** *  When configuration is set to “Unconfigured SCB”, the component must first be
 169:.\Generated_Source\PSoC4/UART.c **** *  initialized to operate in one of the following configurations: I2C, SPI, UART
 170:.\Generated_Source\PSoC4/UART.c **** *  or EZ I2C. Otherwise this function does not enable the component.
 171:.\Generated_Source\PSoC4/UART.c **** *
 172:.\Generated_Source\PSoC4/UART.c **** * Parameters:
 173:.\Generated_Source\PSoC4/UART.c **** *  None
 174:.\Generated_Source\PSoC4/UART.c **** *
 175:.\Generated_Source\PSoC4/UART.c **** * Return:
 176:.\Generated_Source\PSoC4/UART.c **** *  None
 177:.\Generated_Source\PSoC4/UART.c **** *
 178:.\Generated_Source\PSoC4/UART.c **** * Global variables:
 179:.\Generated_Source\PSoC4/UART.c **** *  UART_initVar - used to check initial configuration, modified
 180:.\Generated_Source\PSoC4/UART.c **** *  on first function call.
 181:.\Generated_Source\PSoC4/UART.c **** *
 182:.\Generated_Source\PSoC4/UART.c **** *******************************************************************************/
 183:.\Generated_Source\PSoC4/UART.c **** void UART_Start(void)
 184:.\Generated_Source\PSoC4/UART.c **** {
 185:.\Generated_Source\PSoC4/UART.c ****     if(0u == UART_initVar)
 186:.\Generated_Source\PSoC4/UART.c ****     {
 187:.\Generated_Source\PSoC4/UART.c ****         UART_Init();
 188:.\Generated_Source\PSoC4/UART.c ****         UART_initVar = 1u; /* Component was initialized */
 189:.\Generated_Source\PSoC4/UART.c ****     }
 190:.\Generated_Source\PSoC4/UART.c **** 
 191:.\Generated_Source\PSoC4/UART.c ****     UART_Enable();
 192:.\Generated_Source\PSoC4/UART.c **** }
 193:.\Generated_Source\PSoC4/UART.c **** 
 194:.\Generated_Source\PSoC4/UART.c **** 
 195:.\Generated_Source\PSoC4/UART.c **** /*******************************************************************************
 196:.\Generated_Source\PSoC4/UART.c **** * Function Name: UART_Stop
 197:.\Generated_Source\PSoC4/UART.c **** ********************************************************************************
 198:.\Generated_Source\PSoC4/UART.c **** *
 199:.\Generated_Source\PSoC4/UART.c **** * Summary:
 200:.\Generated_Source\PSoC4/UART.c **** *  Disables the SCB component and its interrupt.
 201:.\Generated_Source\PSoC4/UART.c **** *
 202:.\Generated_Source\PSoC4/UART.c **** * Parameters:
 203:.\Generated_Source\PSoC4/UART.c **** *  None
 204:.\Generated_Source\PSoC4/UART.c **** *
 205:.\Generated_Source\PSoC4/UART.c **** * Return:
 206:.\Generated_Source\PSoC4/UART.c **** *  None
 207:.\Generated_Source\PSoC4/UART.c **** *
 208:.\Generated_Source\PSoC4/UART.c **** *******************************************************************************/
 209:.\Generated_Source\PSoC4/UART.c **** void UART_Stop(void)
 210:.\Generated_Source\PSoC4/UART.c **** {
 211:.\Generated_Source\PSoC4/UART.c **** #if(UART_SCB_IRQ_INTERNAL)
 212:.\Generated_Source\PSoC4/UART.c ****     UART_DisableInt();
 213:.\Generated_Source\PSoC4/UART.c **** #endif /* (UART_SCB_IRQ_INTERNAL) */
 214:.\Generated_Source\PSoC4/UART.c **** 
 215:.\Generated_Source\PSoC4/UART.c ****     UART_CTRL_REG &= (uint32) ~UART_CTRL_ENABLED;  /* Disable SCB block */
 216:.\Generated_Source\PSoC4/UART.c **** 
 217:.\Generated_Source\PSoC4/UART.c **** #if(UART_SCB_IRQ_INTERNAL)
 218:.\Generated_Source\PSoC4/UART.c ****     UART_ClearPendingInt();
 219:.\Generated_Source\PSoC4/UART.c **** #endif /* (UART_SCB_IRQ_INTERNAL) */
 220:.\Generated_Source\PSoC4/UART.c **** 
ARM GAS  C:\Users\PETERG~1\AppData\Local\Temp\ccrUoqgc.s 			page 6


 221:.\Generated_Source\PSoC4/UART.c ****     UART_ScbModeStop(); /* Calls scbMode specific Stop function */
 222:.\Generated_Source\PSoC4/UART.c **** }
 223:.\Generated_Source\PSoC4/UART.c **** 
 224:.\Generated_Source\PSoC4/UART.c **** 
 225:.\Generated_Source\PSoC4/UART.c **** /*******************************************************************************
 226:.\Generated_Source\PSoC4/UART.c **** * Function Name: UART_SetCustomInterruptHandler
 227:.\Generated_Source\PSoC4/UART.c **** ********************************************************************************
 228:.\Generated_Source\PSoC4/UART.c **** *
 229:.\Generated_Source\PSoC4/UART.c **** * Summary:
 230:.\Generated_Source\PSoC4/UART.c **** *  Registers a function to be called by the internal interrupt handler.
 231:.\Generated_Source\PSoC4/UART.c **** *  First the function that is registered is called, then the internal interrupt
 232:.\Generated_Source\PSoC4/UART.c **** *  handler performs any operations such as software buffer management functions
 233:.\Generated_Source\PSoC4/UART.c **** *  before the interrupt returns.  It is the user's responsibility not to break the
 234:.\Generated_Source\PSoC4/UART.c **** *  software buffer operations. Only one custom handler is supported, which is
 235:.\Generated_Source\PSoC4/UART.c **** *  the function provided by the most recent call.
 236:.\Generated_Source\PSoC4/UART.c **** *  At initialization time no custom handler is registered.
 237:.\Generated_Source\PSoC4/UART.c **** *
 238:.\Generated_Source\PSoC4/UART.c **** * Parameters:
 239:.\Generated_Source\PSoC4/UART.c **** *  func: Pointer to the function to register.
 240:.\Generated_Source\PSoC4/UART.c **** *        The value NULL indicates to remove the current custom interrupt
 241:.\Generated_Source\PSoC4/UART.c **** *        handler.
 242:.\Generated_Source\PSoC4/UART.c **** *
 243:.\Generated_Source\PSoC4/UART.c **** * Return:
 244:.\Generated_Source\PSoC4/UART.c **** *  None
 245:.\Generated_Source\PSoC4/UART.c **** *
 246:.\Generated_Source\PSoC4/UART.c **** *******************************************************************************/
 247:.\Generated_Source\PSoC4/UART.c **** void UART_SetCustomInterruptHandler(cyisraddress func)
 248:.\Generated_Source\PSoC4/UART.c **** {
 249:.\Generated_Source\PSoC4/UART.c **** #if !defined (CY_REMOVE_UART_CUSTOM_INTR_HANDLER)
 250:.\Generated_Source\PSoC4/UART.c ****     UART_customIntrHandler = func; /* Register interrupt handler */
 251:.\Generated_Source\PSoC4/UART.c **** #else
 252:.\Generated_Source\PSoC4/UART.c ****     if(NULL != func)
 253:.\Generated_Source\PSoC4/UART.c ****     {
 254:.\Generated_Source\PSoC4/UART.c ****         /* Suppress compiler warning */
 255:.\Generated_Source\PSoC4/UART.c ****     }
 256:.\Generated_Source\PSoC4/UART.c **** #endif /* !defined (CY_REMOVE_UART_CUSTOM_INTR_HANDLER) */
 257:.\Generated_Source\PSoC4/UART.c **** }
 258:.\Generated_Source\PSoC4/UART.c **** 
 259:.\Generated_Source\PSoC4/UART.c **** 
 260:.\Generated_Source\PSoC4/UART.c **** /*******************************************************************************
 261:.\Generated_Source\PSoC4/UART.c **** * Function Name: UART_ScbModeEnableIntr
 262:.\Generated_Source\PSoC4/UART.c **** ********************************************************************************
 263:.\Generated_Source\PSoC4/UART.c **** *
 264:.\Generated_Source\PSoC4/UART.c **** * Summary:
 265:.\Generated_Source\PSoC4/UART.c **** *  Enables an interrupt for a specific mode.
 266:.\Generated_Source\PSoC4/UART.c **** *
 267:.\Generated_Source\PSoC4/UART.c **** * Parameters:
 268:.\Generated_Source\PSoC4/UART.c **** *  None
 269:.\Generated_Source\PSoC4/UART.c **** *
 270:.\Generated_Source\PSoC4/UART.c **** * Return:
 271:.\Generated_Source\PSoC4/UART.c **** *  None
 272:.\Generated_Source\PSoC4/UART.c **** *
 273:.\Generated_Source\PSoC4/UART.c **** *******************************************************************************/
 274:.\Generated_Source\PSoC4/UART.c **** static void UART_ScbEnableIntr(void)
 275:.\Generated_Source\PSoC4/UART.c **** {
 276:.\Generated_Source\PSoC4/UART.c **** #if(UART_SCB_IRQ_INTERNAL)
 277:.\Generated_Source\PSoC4/UART.c ****     #if(UART_SCB_MODE_UNCONFIG_CONST_CFG)
ARM GAS  C:\Users\PETERG~1\AppData\Local\Temp\ccrUoqgc.s 			page 7


 278:.\Generated_Source\PSoC4/UART.c ****         /* Enable interrupt in the NVIC */
 279:.\Generated_Source\PSoC4/UART.c ****         if(0u != UART_scbEnableIntr)
 280:.\Generated_Source\PSoC4/UART.c ****         {
 281:.\Generated_Source\PSoC4/UART.c ****             UART_EnableInt();
 282:.\Generated_Source\PSoC4/UART.c ****         }
 283:.\Generated_Source\PSoC4/UART.c ****     #else
 284:.\Generated_Source\PSoC4/UART.c ****         UART_EnableInt();
  66              		.loc 1 284 0
  67 000e 0A20     		mov	r0, #10
  68 0010 FFF7FEFF 		bl	CyIntEnable
  69              	.LVL1:
  70              	.LBE9:
  71              	.LBE8:
 158:.\Generated_Source\PSoC4/UART.c **** }
  72              		.loc 1 158 0
  73              		@ sp needed for prologue
  74 0014 08BD     		pop	{r3, pc}
  75              	.L4:
  76 0016 C046     		.align	2
  77              	.L3:
  78 0018 00000640 		.word	1074135040
  79              		.cfi_endproc
  80              	.LFE1:
  81              		.size	UART_Enable, .-UART_Enable
  82              		.section	.text.UART_Start,"ax",%progbits
  83              		.align	1
  84              		.global	UART_Start
  85              		.code	16
  86              		.thumb_func
  87              		.type	UART_Start, %function
  88              	UART_Start:
  89              	.LFB2:
 184:.\Generated_Source\PSoC4/UART.c **** {
  90              		.loc 1 184 0
  91              		.cfi_startproc
  92 0000 10B5     		push	{r4, lr}
  93              	.LCFI2:
  94              		.cfi_def_cfa_offset 8
  95              		.cfi_offset 4, -8
  96              		.cfi_offset 14, -4
 185:.\Generated_Source\PSoC4/UART.c ****     if(0u == UART_initVar)
  97              		.loc 1 185 0
  98 0002 054C     		ldr	r4, .L8
  99 0004 2378     		ldrb	r3, [r4]
 100 0006 002B     		cmp	r3, #0
 101 0008 03D1     		bne	.L6
 102              	.LBB10:
 103              	.LBB11:
 118:.\Generated_Source\PSoC4/UART.c ****     UART_UartInit();
 104              		.loc 1 118 0
 105 000a FFF7FEFF 		bl	UART_UartInit
 106              	.LVL2:
 107              	.LBE11:
 108              	.LBE10:
 188:.\Generated_Source\PSoC4/UART.c ****         UART_initVar = 1u; /* Component was initialized */
 109              		.loc 1 188 0
 110 000e 0120     		mov	r0, #1
ARM GAS  C:\Users\PETERG~1\AppData\Local\Temp\ccrUoqgc.s 			page 8


 111 0010 2070     		strb	r0, [r4]
 112              	.L6:
 191:.\Generated_Source\PSoC4/UART.c ****     UART_Enable();
 113              		.loc 1 191 0
 114 0012 FFF7FEFF 		bl	UART_Enable
 115              	.LVL3:
 192:.\Generated_Source\PSoC4/UART.c **** }
 116              		.loc 1 192 0
 117              		@ sp needed for prologue
 118 0016 10BD     		pop	{r4, pc}
 119              	.L9:
 120              		.align	2
 121              	.L8:
 122 0018 00000000 		.word	.LANCHOR0
 123              		.cfi_endproc
 124              	.LFE2:
 125              		.size	UART_Start, .-UART_Start
 126              		.section	.text.UART_Stop,"ax",%progbits
 127              		.align	1
 128              		.global	UART_Stop
 129              		.code	16
 130              		.thumb_func
 131              		.type	UART_Stop, %function
 132              	UART_Stop:
 133              	.LFB3:
 210:.\Generated_Source\PSoC4/UART.c **** {
 134              		.loc 1 210 0
 135              		.cfi_startproc
 136 0000 08B5     		push	{r3, lr}
 137              	.LCFI3:
 138              		.cfi_def_cfa_offset 8
 139              		.cfi_offset 3, -8
 140              		.cfi_offset 14, -4
 212:.\Generated_Source\PSoC4/UART.c ****     UART_DisableInt();
 141              		.loc 1 212 0
 142 0002 0A20     		mov	r0, #10
 143 0004 FFF7FEFF 		bl	CyIntDisable
 144              	.LVL4:
 215:.\Generated_Source\PSoC4/UART.c ****     UART_CTRL_REG &= (uint32) ~UART_CTRL_ENABLED;  /* Disable SCB block */
 145              		.loc 1 215 0
 146 0008 044B     		ldr	r3, .L11
 222:.\Generated_Source\PSoC4/UART.c **** }
 147              		.loc 1 222 0
 148              		@ sp needed for prologue
 215:.\Generated_Source\PSoC4/UART.c ****     UART_CTRL_REG &= (uint32) ~UART_CTRL_ENABLED;  /* Disable SCB block */
 149              		.loc 1 215 0
 150 000a 1A68     		ldr	r2, [r3]
 151 000c 5000     		lsl	r0, r2, #1
 152 000e 4108     		lsr	r1, r0, #1
 153 0010 1960     		str	r1, [r3]
 218:.\Generated_Source\PSoC4/UART.c ****     UART_ClearPendingInt();
 154              		.loc 1 218 0
 155 0012 0A20     		mov	r0, #10
 156 0014 FFF7FEFF 		bl	CyIntClearPending
 157              	.LVL5:
 222:.\Generated_Source\PSoC4/UART.c **** }
 158              		.loc 1 222 0
ARM GAS  C:\Users\PETERG~1\AppData\Local\Temp\ccrUoqgc.s 			page 9


 159 0018 08BD     		pop	{r3, pc}
 160              	.L12:
 161 001a C046     		.align	2
 162              	.L11:
 163 001c 00000640 		.word	1074135040
 164              		.cfi_endproc
 165              	.LFE3:
 166              		.size	UART_Stop, .-UART_Stop
 167              		.section	.text.UART_SetCustomInterruptHandler,"ax",%progbits
 168              		.align	1
 169              		.global	UART_SetCustomInterruptHandler
 170              		.code	16
 171              		.thumb_func
 172              		.type	UART_SetCustomInterruptHandler, %function
 173              	UART_SetCustomInterruptHandler:
 174              	.LFB4:
 248:.\Generated_Source\PSoC4/UART.c **** {
 175              		.loc 1 248 0
 176              		.cfi_startproc
 177              	.LVL6:
 250:.\Generated_Source\PSoC4/UART.c ****     UART_customIntrHandler = func; /* Register interrupt handler */
 178              		.loc 1 250 0
 179 0000 014B     		ldr	r3, .L14
 257:.\Generated_Source\PSoC4/UART.c **** }
 180              		.loc 1 257 0
 181              		@ sp needed for prologue
 250:.\Generated_Source\PSoC4/UART.c ****     UART_customIntrHandler = func; /* Register interrupt handler */
 182              		.loc 1 250 0
 183 0002 5860     		str	r0, [r3, #4]
 257:.\Generated_Source\PSoC4/UART.c **** }
 184              		.loc 1 257 0
 185 0004 7047     		bx	lr
 186              	.L15:
 187 0006 C046     		.align	2
 188              	.L14:
 189 0008 00000000 		.word	.LANCHOR0
 190              		.cfi_endproc
 191              	.LFE4:
 192              		.size	UART_SetCustomInterruptHandler, .-UART_SetCustomInterruptHandler
 193              		.global	UART_customIntrHandler
 194              		.global	UART_initVar
 195              		.bss
 196              		.align	2
 197              		.set	.LANCHOR0,. + 0
 198              		.type	UART_initVar, %object
 199              		.size	UART_initVar, 1
 200              	UART_initVar:
 201 0000 00       		.space	1
 202 0001 000000   		.space	3
 203              		.type	UART_customIntrHandler, %object
 204              		.size	UART_customIntrHandler, 4
 205              	UART_customIntrHandler:
 206 0004 00000000 		.space	4
 207              		.text
 208              	.Letext0:
 209              		.file 2 "./Generated_Source/PSoC4/cytypes.h"
 210              		.file 3 ".\\Generated_Source\\PSoC4\\UART_SPI_UART_PVT.h"
ARM GAS  C:\Users\PETERG~1\AppData\Local\Temp\ccrUoqgc.s 			page 10


 211              		.file 4 "./Generated_Source/PSoC4/CyLib.h"